; Function Attrs: mustprogress nounwind uwtable
define hidden void @_ZN14LibraryCallKit49replace_unrelated_uncommon_traps_with_alloc_stateEP17AllocateArrayNodeP8JVMState(ptr noundef nonnull align 8 dereferenceable(108) %0, ptr noundef %1, ptr nocapture noundef readonly %2) local_unnamed_addr #0 align 2 {
  %4 = getelementptr inbounds i8, ptr %2, i64 56
  %5 = load ptr, ptr %4, align 8
  %6 = getelementptr inbounds i8, ptr %5, i64 8
  %7 = load ptr, ptr %6, align 8
  %8 = load ptr, ptr %7, align 8
  %9 = getelementptr inbounds i8, ptr %8, i64 44
  %10 = load i32, ptr %9, align 4
  %11 = and i32 %10, 127
  %12 = icmp eq i32 %11, 72
  br i1 %12, label %13, label %88

13:                                               ; preds = %3
  %14 = tail call noundef ptr @_ZNK14LibraryCallKit51create_safepoint_with_state_before_array_allocationEPK17AllocateArrayNode(ptr noundef nonnull align 8 dereferenceable(108) %0, ptr noundef %1)
  %15 = getelementptr inbounds i8, ptr %0, i64 40
  %16 = load ptr, ptr %15, align 8
  %17 = getelementptr inbounds i8, ptr %16, i64 56
  %18 = load ptr, ptr %17, align 8
  %19 = getelementptr inbounds i8, ptr %0, i64 104
  %20 = load i32, ptr %19, align 8
  %21 = load ptr, ptr %14, align 8
  %22 = getelementptr inbounds i8, ptr %21, i64 144
  %23 = load ptr, ptr %22, align 8
  %24 = tail call noundef ptr %23(ptr noundef nonnull align 8 dereferenceable(81) %14) #13
  %25 = getelementptr inbounds i8, ptr %24, i64 56
  %26 = load ptr, ptr %25, align 8
  store ptr %26, ptr %15, align 8
  %27 = getelementptr inbounds i8, ptr %24, i64 32
  %28 = load i32, ptr %27, align 8
  %29 = getelementptr inbounds i8, ptr %0, i64 80
  store i32 %28, ptr %29, align 8
  %30 = getelementptr inbounds i8, ptr %24, i64 36
  %31 = load i32, ptr %30, align 4
  %32 = getelementptr inbounds i8, ptr %0, i64 56
  store i32 %31, ptr %32, align 8
  %33 = getelementptr inbounds i8, ptr %24, i64 48
  %34 = load ptr, ptr %33, align 8
  %35 = getelementptr inbounds i8, ptr %0, i64 64
  store ptr %34, ptr %35, align 8
  %36 = getelementptr inbounds i8, ptr %26, i64 56
  %37 = load ptr, ptr %36, align 8
  %38 = getelementptr inbounds i8, ptr %37, i64 32
  %39 = load i32, ptr %38, align 8
  store i32 %39, ptr %19, align 8
  %.pn11.i = load ptr, ptr %4, align 8
  %.0.in.in12.i = getelementptr inbounds i8, ptr %.pn11.i, i64 8
  %.0.in13.i = load ptr, ptr %.0.in.in12.i, align 8
  %.014.i = load ptr, ptr %.0.in13.i, align 8
  %40 = getelementptr inbounds i8, ptr %.014.i, i64 44
  %41 = load i32, ptr %40, align 4
  %42 = and i32 %41, 127
  %43 = icmp eq i32 %42, 72
  br i1 %43, label %.lr.ph.i, label %_ZN14LibraryCallKit49replace_unrelated_uncommon_traps_with_alloc_stateEP8JVMState.exit

.lr.ph.i:                                         ; preds = %13, %_ZN14LibraryCallKit35get_uncommon_trap_from_success_projEP4Node.exit.thread.i
  %.015.i = phi ptr [ %.0.i, %_ZN14LibraryCallKit35get_uncommon_trap_from_success_projEP4Node.exit.thread.i ], [ %.014.i, %13 ]
  %44 = tail call noundef ptr @_ZNK8ProjNode13other_if_projEv(ptr noundef nonnull align 8 dereferenceable(57) %.015.i) #13
  %45 = getelementptr inbounds i8, ptr %44, i64 16
  %46 = load ptr, ptr %45, align 8
  %47 = getelementptr inbounds i8, ptr %44, i64 32
  %48 = load i32, ptr %47, align 8
  %49 = zext i32 %48 to i64
  %50 = getelementptr inbounds ptr, ptr %46, i64 %49
  %.not.i.i = icmp eq i32 %48, 0
  br i1 %.not.i.i, label %_ZN14LibraryCallKit35get_uncommon_trap_from_success_projEP4Node.exit.thread.i, label %.lr.ph.i.i

.lr.ph.i.i:                                       ; preds = %.lr.ph.i
  %51 = load ptr, ptr @_ZN13SharedRuntime19_uncommon_trap_blobE, align 8
  %52 = getelementptr inbounds i8, ptr %51, i64 36
  br label %53

53:                                               ; preds = %71, %.lr.ph.i.i
  %.01314.i.i = phi ptr [ %46, %.lr.ph.i.i ], [ %72, %71 ]
  %54 = load ptr, ptr %.01314.i.i, align 8
  %55 = getelementptr inbounds i8, ptr %54, i64 8
  %56 = load ptr, ptr %55, align 8
  %57 = load ptr, ptr %56, align 8
  %58 = icmp eq ptr %57, %44
  br i1 %58, label %59, label %71

59:                                               ; preds = %53
  %60 = getelementptr inbounds i8, ptr %54, i64 44
  %61 = load i32, ptr %60, align 4
  %62 = and i32 %61, 31
  %63 = icmp eq i32 %62, 31
  br i1 %63, label %64, label %71

64:                                               ; preds = %59
  %65 = getelementptr inbounds i8, ptr %54, i64 96
  %66 = load ptr, ptr %65, align 8
  %67 = load i32, ptr %52, align 4
  %68 = sext i32 %67 to i64
  %69 = getelementptr inbounds i8, ptr %51, i64 %68
  %70 = icmp eq ptr %66, %69
  br i1 %70, label %_ZN14LibraryCallKit35get_uncommon_trap_from_success_projEP4Node.exit.i, label %71

71:                                               ; preds = %64, %59, %53
  %72 = getelementptr inbounds i8, ptr %.01314.i.i, i64 8
  %73 = icmp ult ptr %72, %50
  br i1 %73, label %53, label %_ZN14LibraryCallKit35get_uncommon_trap_from_success_projEP4Node.exit.thread.i, !llvm.loop !16

_ZN14LibraryCallKit35get_uncommon_trap_from_success_projEP4Node.exit.i: ; preds = %64
  tail call void @_ZN14LibraryCallKit24create_new_uncommon_trapEP18CallStaticJavaNode(ptr noundef nonnull align 8 dereferenceable(108) %0, ptr noundef nonnull %54)
  br label %_ZN14LibraryCallKit35get_uncommon_trap_from_success_projEP4Node.exit.thread.i

_ZN14LibraryCallKit35get_uncommon_trap_from_success_projEP4Node.exit.thread.i: ; preds = %71, %_ZN14LibraryCallKit35get_uncommon_trap_from_success_projEP4Node.exit.i, %.lr.ph.i
  %74 = getelementptr inbounds i8, ptr %.015.i, i64 8
  %75 = load ptr, ptr %74, align 8
  %.pn.i = load ptr, ptr %75, align 8
  %.0.in.in.i = getelementptr inbounds i8, ptr %.pn.i, i64 8
  %.0.in.i = load ptr, ptr %.0.in.in.i, align 8
  %.0.i = load ptr, ptr %.0.in.i, align 8
  %76 = getelementptr inbounds i8, ptr %.0.i, i64 44
  %77 = load i32, ptr %76, align 4
  %78 = and i32 %77, 127
  %79 = icmp eq i32 %78, 72
  br i1 %79, label %.lr.ph.i, label %_ZN14LibraryCallKit49replace_unrelated_uncommon_traps_with_alloc_stateEP8JVMState.exit, !llvm.loop !23

_ZN14LibraryCallKit49replace_unrelated_uncommon_traps_with_alloc_stateEP8JVMState.exit: ; preds = %_ZN14LibraryCallKit35get_uncommon_trap_from_success_projEP4Node.exit.thread.i, %13
  %80 = getelementptr inbounds i8, ptr %18, i64 56
  %81 = load ptr, ptr %80, align 8
  store ptr %81, ptr %15, align 8
  %82 = getelementptr inbounds i8, ptr %18, i64 32
  %83 = load i32, ptr %82, align 8
  store i32 %83, ptr %29, align 8
  %84 = getelementptr inbounds i8, ptr %18, i64 36
  %85 = load i32, ptr %84, align 4
  store i32 %85, ptr %32, align 8
  %86 = getelementptr inbounds i8, ptr %18, i64 48
  %87 = load ptr, ptr %86, align 8
  store ptr %87, ptr %35, align 8
  store i32 %20, ptr %19, align 8
  br label %88

88:                                               ; preds = %_ZN14LibraryCallKit49replace_unrelated_uncommon_traps_with_alloc_stateEP8JVMState.exit, %3
  ret void
}